; Function Attrs: nounwind uwtable
define ptr @l_Array_forIn_x27Unsafe_loop___at_Lean_Widget_diffHypothesesBundle___spec__1___boxed(ptr noundef readonly captures(none) %0) local_unnamed_addr #0 {
  %2 = load ptr, ptr %0, align 8, !tbaa !4
  %3 = getelementptr inbounds nuw i8, ptr %0, i64 8
  %4 = load ptr, ptr %3, align 8, !tbaa !4
  %5 = getelementptr inbounds nuw i8, ptr %0, i64 16
  %6 = load ptr, ptr %5, align 8, !tbaa !4
  %7 = getelementptr inbounds nuw i8, ptr %0, i64 24
  %8 = load ptr, ptr %7, align 8, !tbaa !4
  %9 = getelementptr inbounds nuw i8, ptr %0, i64 32
  %10 = load ptr, ptr %9, align 8, !tbaa !4
  %11 = getelementptr inbounds nuw i8, ptr %0, i64 40
  %12 = load ptr, ptr %11, align 8, !tbaa !4
  %13 = getelementptr inbounds nuw i8, ptr %0, i64 48
  %14 = load ptr, ptr %13, align 8, !tbaa !4
  %15 = getelementptr inbounds nuw i8, ptr %0, i64 56
  %16 = load ptr, ptr %15, align 8, !tbaa !4
  %17 = getelementptr inbounds nuw i8, ptr %0, i64 64
  %18 = load ptr, ptr %17, align 8, !tbaa !4
  %19 = getelementptr inbounds nuw i8, ptr %0, i64 72
  %20 = load ptr, ptr %19, align 8, !tbaa !4
  %21 = getelementptr inbounds nuw i8, ptr %0, i64 80
  %22 = load ptr, ptr %21, align 8, !tbaa !4
  %23 = getelementptr inbounds nuw i8, ptr %0, i64 88
  %24 = load ptr, ptr %23, align 8, !tbaa !4
  %25 = getelementptr inbounds nuw i8, ptr %0, i64 96
  %26 = load ptr, ptr %25, align 8, !tbaa !4
  %27 = getelementptr inbounds nuw i8, ptr %0, i64 104
  %28 = load ptr, ptr %27, align 8, !tbaa !4
  %29 = getelementptr inbounds nuw i8, ptr %0, i64 112
  %30 = load ptr, ptr %29, align 8, !tbaa !4
  %31 = getelementptr inbounds nuw i8, ptr %0, i64 120
  %32 = load ptr, ptr %31, align 8, !tbaa !4
  %33 = getelementptr inbounds nuw i8, ptr %0, i64 128
  %34 = load ptr, ptr %33, align 8, !tbaa !4
  %35 = ptrtoint ptr %2 to i64
  %36 = lshr i64 %35, 1
  %37 = trunc i64 %36 to i8
  %38 = and i64 %35, 1
  %.not = icmp eq i64 %38, 0
  br i1 %.not, label %39, label %lean_dec.exit47

39:                                               ; preds = %1
  %40 = load i32, ptr %2, align 4, !tbaa !8
  %41 = icmp sgt i32 %40, 1
  br i1 %41, label %42, label %44, !prof !11

42:                                               ; preds = %39
  %43 = add nsw i32 %40, -1
  store i32 %43, ptr %2, align 4, !tbaa !8
  br label %lean_dec.exit47

44:                                               ; preds = %39
  %.not.i = icmp eq i32 %40, 0
  br i1 %.not.i, label %lean_dec.exit47, label %45

45:                                               ; preds = %44
  tail call void @lean_dec_ref_cold(ptr noundef nonnull %2) #7
  br label %lean_dec.exit47

lean_dec.exit47:                                  ; preds = %45, %44, %42, %1
  %46 = getelementptr i8, ptr %20, i64 8
  %.val58 = load i64, ptr %46, align 8, !tbaa !16
  %47 = ptrtoint ptr %20 to i64
  %48 = and i64 %47, 1
  %.not59 = icmp eq i64 %48, 0
  br i1 %.not59, label %49, label %lean_dec.exit46

49:                                               ; preds = %lean_dec.exit47
  %50 = load i32, ptr %20, align 4, !tbaa !8
  %51 = icmp sgt i32 %50, 1
  br i1 %51, label %52, label %54, !prof !11

52:                                               ; preds = %49
  %53 = add nsw i32 %50, -1
  store i32 %53, ptr %20, align 4, !tbaa !8
  br label %lean_dec.exit46

54:                                               ; preds = %49
  %.not.i48 = icmp eq i32 %50, 0
  br i1 %.not.i48, label %lean_dec.exit46, label %55

55:                                               ; preds = %54
  tail call void @lean_dec_ref_cold(ptr noundef nonnull %20) #7
  br label %lean_dec.exit46

lean_dec.exit46:                                  ; preds = %55, %54, %52, %lean_dec.exit47
  %56 = getelementptr i8, ptr %22, i64 8
  %.val = load i64, ptr %56, align 8, !tbaa !16
  %57 = ptrtoint ptr %22 to i64
  %58 = and i64 %57, 1
  %.not60 = icmp eq i64 %58, 0
  br i1 %.not60, label %59, label %lean_dec.exit45

59:                                               ; preds = %lean_dec.exit46
  %60 = load i32, ptr %22, align 4, !tbaa !8
  %61 = icmp sgt i32 %60, 1
  br i1 %61, label %62, label %64, !prof !11

62:                                               ; preds = %59
  %63 = add nsw i32 %60, -1
  store i32 %63, ptr %22, align 4, !tbaa !8
  br label %lean_dec.exit45

64:                                               ; preds = %59
  %.not.i50 = icmp eq i32 %60, 0
  br i1 %.not.i50, label %lean_dec.exit45, label %65

65:                                               ; preds = %64
  tail call void @lean_dec_ref_cold(ptr noundef nonnull %22) #7
  br label %lean_dec.exit45

lean_dec.exit45:                                  ; preds = %65, %64, %62, %lean_dec.exit46
  %66 = tail call ptr @l_Array_forIn_x27Unsafe_loop___at_Lean_Widget_diffHypothesesBundle___spec__1(i8 noundef zeroext %37, ptr noundef %4, ptr noundef %6, ptr poison, ptr noundef %10, ptr noundef %12, ptr poison, ptr noundef %16, ptr noundef %18, i64 noundef %.val58, i64 noundef %.val, ptr noundef %24, ptr noundef %26, ptr noundef %28, ptr noundef %30, ptr noundef %32, ptr noundef %34)
  %67 = ptrtoint ptr %18 to i64
  %68 = and i64 %67, 1
  %.not61 = icmp eq i64 %68, 0
  br i1 %.not61, label %69, label %lean_dec.exit44

69:                                               ; preds = %lean_dec.exit45
  %70 = load i32, ptr %18, align 4, !tbaa !8
  %71 = icmp sgt i32 %70, 1
  br i1 %71, label %72, label %74, !prof !11

72:                                               ; preds = %69
  %73 = add nsw i32 %70, -1
  store i32 %73, ptr %18, align 4, !tbaa !8
  br label %lean_dec.exit44

74:                                               ; preds = %69
  %.not.i52 = icmp eq i32 %70, 0
  br i1 %.not.i52, label %lean_dec.exit44, label %75

75:                                               ; preds = %74
  tail call void @lean_dec_ref_cold(ptr noundef nonnull %18) #7
  br label %lean_dec.exit44

lean_dec.exit44:                                  ; preds = %75, %74, %72, %lean_dec.exit45
  %76 = ptrtoint ptr %14 to i64
  %77 = and i64 %76, 1
  %.not62 = icmp eq i64 %77, 0
  br i1 %.not62, label %78, label %lean_dec.exit43

78:                                               ; preds = %lean_dec.exit44
  %79 = load i32, ptr %14, align 4, !tbaa !8
  %80 = icmp sgt i32 %79, 1
  br i1 %80, label %81, label %83, !prof !11

81:                                               ; preds = %78
  %82 = add nsw i32 %79, -1
  store i32 %82, ptr %14, align 4, !tbaa !8
  br label %lean_dec.exit43

83:                                               ; preds = %78
  %.not.i54 = icmp eq i32 %79, 0
  br i1 %.not.i54, label %lean_dec.exit43, label %84

84:                                               ; preds = %83
  tail call void @lean_dec_ref_cold(ptr noundef nonnull %14) #7
  br label %lean_dec.exit43

lean_dec.exit43:                                  ; preds = %84, %83, %81, %lean_dec.exit44
  %85 = ptrtoint ptr %8 to i64
  %86 = and i64 %85, 1
  %.not63 = icmp eq i64 %86, 0
  br i1 %.not63, label %87, label %lean_dec.exit

87:                                               ; preds = %lean_dec.exit43
  %88 = load i32, ptr %8, align 4, !tbaa !8
  %89 = icmp sgt i32 %88, 1
  br i1 %89, label %90, label %92, !prof !11

90:                                               ; preds = %87
  %91 = add nsw i32 %88, -1
  store i32 %91, ptr %8, align 4, !tbaa !8
  br label %lean_dec.exit

92:                                               ; preds = %87
  %.not.i56 = icmp eq i32 %88, 0
  br i1 %.not.i56, label %lean_dec.exit, label %93

93:                                               ; preds = %92
  tail call void @lean_dec_ref_cold(ptr noundef nonnull %8) #7
  br label %lean_dec.exit

lean_dec.exit:                                    ; preds = %93, %92, %90, %lean_dec.exit43
  ret ptr %66
}